target datalayout = "e-m:e-p270:32:32-p271:32:32-p272:64:64-i64:64-i128:128-f80:128-n8:16:32:64-S128"
target triple = "x86_64-pc-linux-gnu"

; Function Attrs: mustprogress uwtable
define hidden noundef i32 @_ZN5ceres8internal14SparseCholesky14FactorAndSolveEPNS0_25CompressedRowSparseMatrixEPKdPdPNSt7__cxx1112basic_stringIcSt11char_traitsIcESaIcEEE(ptr noundef nonnull align 8 dereferenceable(8) %0, ptr noundef %1, ptr noundef %2, ptr noundef %3, ptr noundef %4) #3 align 2 {
  %6 = alloca ptr, align 8
  %7 = alloca ptr, align 8
  %8 = alloca ptr, align 8
  %9 = alloca ptr, align 8
  %10 = alloca ptr, align 8
  %11 = alloca i32, align 4
  store ptr %0, ptr %6, align 8, !tbaa !44
  store ptr %1, ptr %7, align 8, !tbaa !66
  store ptr %2, ptr %8, align 8, !tbaa !68
  store ptr %3, ptr %9, align 8, !tbaa !68
  store ptr %4, ptr %10, align 8, !tbaa !70
  %12 = load ptr, ptr %6, align 8
  call void @llvm.lifetime.start.p0(i64 4, ptr %11) #18
  %13 = load ptr, ptr %7, align 8, !tbaa !66
  %14 = load ptr, ptr %10, align 8, !tbaa !70
  %15 = load ptr, ptr %12, align 8, !tbaa !72
  %16 = getelementptr inbounds ptr, ptr %15, i64 3
  %17 = load ptr, ptr %16, align 8
  %18 = call noundef i32 %17(ptr noundef nonnull align 8 dereferenceable(8) %12, ptr noundef %13, ptr noundef %14)
  store i32 %18, ptr %11, align 4, !tbaa !74
  %19 = load i32, ptr %11, align 4, !tbaa !74
  %20 = icmp eq i32 %19, 0
  br i1 %20, label %21, label %29

21:                                               ; preds = %5
  %22 = load ptr, ptr %8, align 8, !tbaa !68
  %23 = load ptr, ptr %9, align 8, !tbaa !68
  %24 = load ptr, ptr %10, align 8, !tbaa !70
  %25 = load ptr, ptr %12, align 8, !tbaa !72
  %26 = getelementptr inbounds ptr, ptr %25, i64 4
  %27 = load ptr, ptr %26, align 8
  %28 = call noundef i32 %27(ptr noundef nonnull align 8 dereferenceable(8) %12, ptr noundef %22, ptr noundef %23, ptr noundef %24)
  store i32 %28, ptr %11, align 4, !tbaa !74
  br label %29

29:                                               ; preds = %21, %5
  %30 = load i32, ptr %11, align 4, !tbaa !74
  call void @llvm.lifetime.end.p0(i64 4, ptr %11) #18
  ret i32 %30
}