; Function Attrs: mustprogress uwtable
define hidden noundef i32 @_ZN5ceres8internal14SparseCholesky14FactorAndSolveEPNS0_25CompressedRowSparseMatrixEPKdPdPNSt7__cxx1112basic_stringIcSt11char_traitsIcESaIcEEE(ptr noundef nonnull align 8 dereferenceable(8) %0, ptr noundef %1, ptr noundef %2, ptr noundef %3, ptr noundef %4) local_unnamed_addr #0 align 2 {
  %6 = load ptr, ptr %0, align 8, !tbaa !35
  %7 = getelementptr inbounds nuw i8, ptr %6, i64 24
  %8 = load ptr, ptr %7, align 8
  %9 = tail call noundef i32 %8(ptr noundef nonnull align 8 dereferenceable(8) %0, ptr noundef %1, ptr noundef %4)
  %10 = icmp eq i32 %9, 0
  br i1 %10, label %11, label %16

11:                                               ; preds = %5
  %12 = load ptr, ptr %0, align 8, !tbaa !35
  %13 = getelementptr inbounds nuw i8, ptr %12, i64 32
  %14 = load ptr, ptr %13, align 8
  %15 = tail call noundef i32 %14(ptr noundef nonnull align 8 dereferenceable(8) %0, ptr noundef %2, ptr noundef %3, ptr noundef %4)
  br label %16

16:                                               ; preds = %11, %5
  %.0 = phi i32 [ %15, %11 ], [ %9, %5 ]
  ret i32 %.0
}